; Function Attrs: mustprogress uwtable
define internal noalias noundef nonnull ptr @_ZNK7testing8internal30ValuesInIteratorRangeGeneratorIN11opencv_test12_GLOBAL__N_110BorderModeEE5BeginEv(ptr noundef nonnull align 8 dereferenceable(32) %0) unnamed_addr #4 align 2 personality ptr @__gxx_personality_v0 {
  %2 = tail call noalias noundef nonnull dereferenceable(32) ptr @_Znwm(i64 noundef 32) #34
  %3 = getelementptr inbounds nuw i8, ptr %0, i64 8
  %.val = load ptr, ptr %3, align 8, !tbaa !651
  store ptr getelementptr inbounds nuw inrange(-16, 56) (i8, ptr @_ZTVN7testing8internal30ValuesInIteratorRangeGeneratorIN11opencv_test12_GLOBAL__N_110BorderModeEE8IteratorE, i64 16), ptr %2, align 8, !tbaa !19
  %4 = getelementptr inbounds nuw i8, ptr %2, i64 8
  store ptr %0, ptr %4, align 8, !tbaa !652
  %5 = getelementptr inbounds nuw i8, ptr %2, i64 16
  store ptr %.val, ptr %5, align 8, !tbaa !651
  %6 = getelementptr inbounds nuw i8, ptr %2, i64 24
  store ptr null, ptr %6, align 8, !tbaa !657
  ret ptr %2
}